; Function Attrs: mustprogress uwtable
define void @_ZN6google8protobuf2io15FileInputStreamC2Eii(ptr noundef nonnull align 8 dereferenceable(88) %this, i32 noundef %file_descriptor, i32 noundef %block_size) unnamed_addr #3 align 2 personality ptr @__gxx_personality_v0 {
entry:
  store ptr getelementptr inbounds ({ [9 x ptr] }, ptr @_ZTVN6google8protobuf2io15FileInputStreamE, i64 0, i32 0, i64 2), ptr %this, align 8
  %copying_input_ = getelementptr inbounds i8, ptr %this, i64 8
  tail call void @_ZN6google8protobuf2io15FileInputStream22CopyingFileInputStreamC1Ei(ptr noundef nonnull align 8 dereferenceable(24) %copying_input_, i32 noundef %file_descriptor)
  %impl_ = getelementptr inbounds i8, ptr %this, i64 32
  invoke void @_ZN6google8protobuf2io25CopyingInputStreamAdaptorC1EPNS1_18CopyingInputStreamEi(ptr noundef nonnull align 8 dereferenceable(52) %impl_, ptr noundef nonnull %copying_input_, i32 noundef %block_size)
          to label %invoke.cont4 unwind label %lpad3

invoke.cont4:                                     ; preds = %entry
  ret void

lpad3:                                            ; preds = %entry
  %0 = landingpad { ptr, i32 }
          cleanup
  tail call void @_ZN6google8protobuf2io15FileInputStream22CopyingFileInputStreamD1Ev(ptr noundef nonnull align 8 dereferenceable(24) %copying_input_) #16
  resume { ptr, i32 } %0
}